; Function Attrs: mustprogress uwtable
define noundef ptr @lean_array_set_panic(ptr noundef readnone returned captures(ret: address, provenance) %0, ptr noundef %1) local_unnamed_addr #0 {
  %3 = ptrtoint ptr %1 to i64
  %4 = and i64 %3, 1
  %.not = icmp eq i64 %4, 0
  br i1 %.not, label %5, label %_ZL8lean_decP11lean_object.exit

5:                                                ; preds = %2
  %6 = load i32, ptr %1, align 4, !tbaa !23
  %7 = icmp sgt i32 %6, 1
  br i1 %7, label %8, label %10, !prof !25

8:                                                ; preds = %5
  %9 = add nsw i32 %6, -1
  store i32 %9, ptr %1, align 4, !tbaa !23
  br label %_ZL8lean_decP11lean_object.exit

10:                                               ; preds = %5
  %.not.i = icmp eq i32 %6, 0
  br i1 %.not.i, label %_ZL8lean_decP11lean_object.exit, label %11

11:                                               ; preds = %10
  tail call void @lean_dec_ref_cold(ptr noundef nonnull %1)
  br label %_ZL8lean_decP11lean_object.exit

_ZL8lean_decP11lean_object.exit:                  ; preds = %11, %10, %8, %2
  %12 = tail call noalias ptr @mi_malloc(i64 noundef 59) #40
  %13 = icmp eq ptr %12, null
  br i1 %13, label %14, label %lean_mk_ascii_string_unchecked.exit

14:                                               ; preds = %_ZL8lean_decP11lean_object.exit
  tail call void @lean_internal_panic_out_of_memory() #43
  unreachable

lean_mk_ascii_string_unchecked.exit:              ; preds = %_ZL8lean_decP11lean_object.exit
  %15 = getelementptr inbounds nuw i8, ptr %12, i64 4
  store i32 1, ptr %12, align 4, !tbaa !23
  store i32 -117440512, ptr %15, align 4
  %16 = getelementptr inbounds nuw i8, ptr %12, i64 8
  store i64 27, ptr %16, align 8, !tbaa !30
  %17 = getelementptr inbounds nuw i8, ptr %12, i64 16
  store i64 27, ptr %17, align 8, !tbaa !30
  %18 = getelementptr inbounds nuw i8, ptr %12, i64 24
  store i64 26, ptr %18, align 8, !tbaa !30
  %19 = getelementptr inbounds nuw i8, ptr %12, i64 32
  tail call void @llvm.memcpy.p0.p0.i64(ptr noundef nonnull align 1 dereferenceable(26) %19, ptr noundef nonnull readonly align 1 dereferenceable(26) @.str.9, i64 26, i1 false)
  %20 = getelementptr inbounds nuw i8, ptr %12, i64 58
  store i8 0, ptr %20, align 1, !tbaa !57
  tail call void @lean_panic(ptr noundef nonnull %19, i1 noundef zeroext false)
  %21 = ptrtoint ptr %12 to i64
  %22 = and i64 %21, 1
  %.not.i2 = icmp eq i64 %22, 0
  br i1 %.not.i2, label %23, label %lean_panic_fn.exit

23:                                               ; preds = %lean_mk_ascii_string_unchecked.exit
  %24 = load i32, ptr %12, align 4, !tbaa !23
  %25 = icmp sgt i32 %24, 1
  br i1 %25, label %26, label %28, !prof !25

26:                                               ; preds = %23
  %27 = add nsw i32 %24, -1
  store i32 %27, ptr %12, align 4, !tbaa !23
  br label %lean_panic_fn.exit

28:                                               ; preds = %23
  %.not.i.i = icmp eq i32 %24, 0
  br i1 %.not.i.i, label %lean_panic_fn.exit, label %29

29:                                               ; preds = %28
  tail call void @lean_dec_ref_cold(ptr noundef nonnull %12)
  br label %lean_panic_fn.exit

lean_panic_fn.exit:                               ; preds = %lean_mk_ascii_string_unchecked.exit, %26, %28, %29
  ret ptr %0
}